; Function Attrs: mustprogress nofree norecurse nosync nounwind willreturn memory(argmem: readwrite) uwtable
define hidden void @KeccakP1600_AddBytesInLane(ptr noundef captures(none) %0, i32 noundef %1, ptr noundef readonly captures(none) %2, i32 noundef %3, i32 noundef %4) local_unnamed_addr #2 {
  %6 = alloca i64, align 8
  call void @llvm.lifetime.start.p0(i64 8, ptr nonnull %6)
  switch i32 %4, label %10 [
    i32 0, label %20
    i32 1, label %7
  ]

7:                                                ; preds = %5
  %8 = load i8, ptr %2, align 1, !tbaa !8
  %9 = zext i8 %8 to i64
  br label %12

10:                                               ; preds = %5
  store i64 0, ptr %6, align 8, !tbaa !4
  %11 = zext i32 %4 to i64
  call void @llvm.memcpy.p0.p0.i64(ptr nonnull align 8 %6, ptr align 1 %2, i64 %11, i1 false)
  %.0..0..0..0..pre = load i64, ptr %6, align 8, !tbaa !4
  br label %12

12:                                               ; preds = %10, %7
  %.0..0..0. = phi i64 [ %.0..0..0..0..pre, %10 ], [ %9, %7 ]
  %13 = shl i32 %3, 3
  %14 = zext nneg i32 %13 to i64
  %15 = shl i64 %.0..0..0., %14
  %16 = zext i32 %1 to i64
  %17 = getelementptr inbounds nuw i64, ptr %0, i64 %16
  %18 = load i64, ptr %17, align 8, !tbaa !4
  %19 = xor i64 %18, %15
  store i64 %19, ptr %17, align 8, !tbaa !4
  br label %20

20:                                               ; preds = %5, %12
  call void @llvm.lifetime.end.p0(i64 8, ptr nonnull %6)
  ret void
}